Certificate:
    Data:
        Version: 1 (0x0)
        Serial Number: 32768 (0x8000)
    Signature Algorithm: sha256WithRSAEncryption
        Issuer: C=DE, ST=Bavaria, O=SAP, OU=Team Jester, CN=TestCA2
        Validity
            Not Before: Jan 16 17:45:19 2019 GMT
            Not After : Feb 15 17:45:19 2019 GMT
        Subject: C=DE, ST=Bavaria, O=SAP, OU=Team Jester, CN=MyTestClientCA2
        Subject Public Key Info:
            Public Key Algorithm: rsaEncryption
                Public-Key: (2048 bit)
                Modulus:
                    00:c0:51:df:52:8a:72:20:47:6f:5e:97:18:0f:b7:
                    2d:3e:35:62:7f:a2:d6:9e:b0:9d:64:94:39:b2:a3:
                    8b:36:23:40:93:ab:48:ce:6f:6f:e4:b6:f8:99:55:
                    73:77:fd:bc:c1:0b:1b:97:b1:37:4e:84:c5:cd:3e:
                    52:38:41:67:d8:38:da:9b:0a:6f:60:ca:0c:46:e5:
                    af:24:98:55:e8:8e:e8:33:a1:eb:8b:62:a9:89:5b:
                    5d:67:c8:a6:b3:63:4c:50:53:80:e5:3a:15:0f:c3:
                    1f:66:64:bd:b7:f6:17:06:69:f5:5a:7f:21:50:51:
                    2e:2b:20:2f:1f:51:be:f2:f8:f3:a6:95:6e:ef:01:
                    5b:a1:60:16:5c:96:59:16:31:35:52:b8:6e:79:1d:
                    78:d4:8a:36:85:9d:ec:67:27:1f:e5:21:44:23:c8:
                    e6:61:86:97:f8:48:c4:dd:74:c2:86:2d:fc:27:5c:
                    ab:c6:13:e6:e1:ed:36:48:48:da:40:7c:5d:11:f5:
                    c9:17:b1:14:b8:c9:d9:f1:90:09:cb:b3:1a:7f:92:
                    24:14:7c:fb:4e:3c:ca:37:13:9e:ea:76:19:39:74:
                    5b:83:fe:14:96:1a:8c:48:13:d9:cd:7f:af:8a:36:
                    72:6e:03:ab:90:4c:ba:cb:62:53:86:a4:86:5b:37:
                    a7:f1
                Exponent: 65537 (0x10001)
    Signature Algorithm: sha256WithRSAEncryption
         60:47:fa:68:a6:8a:51:54:0c:f2:34:f5:11:46:fa:23:cb:4d:
         16:46:be:ac:bb:48:0f:46:49:e2:6f:5d:89:80:20:b4:09:c9:
         bd:0a:b0:43:c7:3a:79:49:5d:d5:48:91:81:28:cc:32:fe:36:
         72:52:7d:a8:c0:fe:6b:ee:d7:a2:7c:61:04:16:52:69:a5:5b:
         1b:5d:c7:e3:58:5c:f7:45:e9:f8:f9:fc:1e:fb:b5:e5:7c:7c:
         c5:b2:62:04:ef:ee:ef:c4:12:79:31:86:a0:bb:25:d7:e4:4c:
         72:4a:24:60:14:53:7a:60:57:f1:0b:00:30:e4:6d:ce:51:a9:
         0f:d5:17:29:65:7c:79:13:ff:b8:16:8e:19:1a:86:d3:bd:ef:
         28:a5:08:fb:15:a0:a5:38:19:42:4c:1c:0b:f8:6c:77:33:58:
         61:0e:05:c7:1b:1b:3a:9f:3a:79:38:66:2f:01:19:2c:ce:fa:
         73:c8:f8:c9:c4:1e:93:35:5e:a0:71:94:f8:9e:dc:13:cd:d3:
         a6:5a:f4:0f:95:10:57:6e:c3:a8:91:48:03:32:d2:b1:b8:43:
         c5:ae:9e:cd:bb:40:73:b9:8a:0c:68:d9:06:70:db:aa:94:45:
         2f:2c:76:ef:b6:19:0c:39:25:79:f5:21:10:18:f0:a9:5a:55:
         1e:9e:8e:e7:da:8d:4d:ec:41:84:bc:19:35:0e:6a:55:15:4c:
         10:d5:9a:ff:7b:de:31:51:69:d7:c5:9a:a2:23:5e:65:db:92:
         c4:2a:6b:34:dd:b8:d7:4a:b0:cb:42:2e:64:4a:2c:8c:c1:ed:
         78:4a:b6:11:72:7d:66:bd:83:ec:24:ce:cd:14:44:55:24:44:
         c5:f6:25:b0:c5:a2:26:85:8e:6d:01:12:0e:ae:0c:78:d9:dc:
         fa:74:45:8d:7f:9a:4c:23:5a:b4:a0:cc:5d:94:a5:3d:02:78:
         a5:b8:38:d9:b2:a1:6b:56:63:89:c2:86:d6:75:4f:90:92:47:
         bb:e9:66:4d:be:90:cc:10:d4:8d:50:0b:08:47:cc:76:b0:fe:
         e4:b9:ee:a8:9f:a4:7d:cd:ed:c2:42:4c:4f:f6:bb:89:61:07:
         8d:ea:39:b7:46:de:eb:95:d0:13:54:e6:73:47:2f:cc:69:dc:
         8a:df:7f:54:bc:87:9e:f8:56:a2:dc:dc:19:b4:2d:92:d4:9a:
         dd:ac:1d:bf:a9:91:eb:4a:fd:70:17:1c:7c:13:4c:48:9d:b0:
         e2:73:6d:fe:48:1c:61:b4:8c:ea:b4:cf:1b:70:08:9b:33:e1:
         56:10:03:b9:ad:43:12:75:4a:ca:2a:a7:84:c4:c6:dc:0e:a9:
         21:a9:41:1d:cc:42:02:fb
-----BEGIN CERTIFICATE-----
MIIEKDCCAhACAwCAADANBgkqhkiG9w0BAQsFADBVMQswCQYDVQQGEwJERTEQMA4G
A1UECAwHQmF2YXJpYTEMMAoGA1UECgwDU0FQMRQwEgYDVQQLDAtUZWFtIEplc3Rl
cjEQMA4GA1UEAwwHVGVzdENBMjAeFw0xOTAxMTYxNzQ1MTlaFw0xOTAyMTUxNzQ1
MTlaMF0xCzAJBgNVBAYTAkRFMRAwDgYDVQQIDAdCYXZhcmlhMQwwCgYDVQQKDANT
QVAxFDASBgNVBAsMC1RlYW0gSmVzdGVyMRgwFgYDVQQDDA9NeVRlc3RDbGllbnRD
QTIwggEiMA0GCSqGSIb3DQEBAQUAA4IBDwAwggEKAoIBAQDAUd9SinIgR29elxgP
ty0+NWJ/otaesJ1klDmyo4s2I0CTq0jOb2/ktviZVXN3/bzBCxuXsTdOhMXNPlI4
QWfYONqbCm9gygxG5a8kmFXojugzoeuLYqmJW11nyKazY0xQU4DlOhUPwx9mZL23
9hcGafVafyFQUS4rIC8fUb7y+POmlW7vAVuhYBZcllkWMTVSuG55HXjUijaFnexn
Jx/lIUQjyOZhhpf4SMTddMKGLfwnXKvGE+bh7TZISNpAfF0R9ckXsRS4ydnxkAnL
sxp/kiQUfPtOPMo3E57qdhk5dFuD/hSWGoxIE9nNf6+KNnJuA6uQTLrLYlOGpIZb
N6fxAgMBAAEwDQYJKoZIhvcNAQELBQADggIBAGBH+mimilFUDPI09RFG+iPLTRZG
vqy7SA9GSeJvXYmAILQJyb0KsEPHOnlJXdVIkYEozDL+NnJSfajA/mvu16J8YQQW
UmmlWxtdx+NYXPdF6fj5/B77teV8fMWyYgTv7u/EEnkxhqC7JdfkTHJKJGAUU3pg
V/ELADDkbc5RqQ/VFyllfHkT/7gWjhkahtO97yilCPsVoKU4GUJMHAv4bHczWGEO
BccbGzqfOnk4Zi8BGSzO+nPI+MnEHpM1XqBxlPie3BPN06Za9A+VEFduw6iRSAMy
0rG4Q8Wuns27QHO5igxo2QZw26qURS8sdu+2GQw5JXn1IRAY8KlaVR6ejufajU3s
QYS8GTUOalUVTBDVmv973jFRadfFmqIjXmXbksQqazTduNdKsMtCLmRKLIzB7XhK
thFyfWa9g+wkzs0URFUkRMX2JbDFoiaFjm0BEg6uDHjZ3Pp0RY1/mkwjWrSgzF2U
pT0CeKW4ONmyoWtWY4nChtZ1T5CSR7vpZk2+kMwQ1I1QCwhHzHaw/uS57qifpH3N
7cJCTE/2u4lhB43qObdG3uuV0BNU5nNHL8xp3Irff1S8h574VqLc3Bm0LZLUmt2s
Hb+pketK/XAXHHwTTEidsOJzbf5IHGG0jOq0zxtwCJsz4VYQA7mtQxJ1Ssoqp4TE
xtwOqSGpQR3MQgL7
-----END CERTIFICATE-----
