Certificate:
    Data:
        Version: 1 (0x0)
        Serial Number: 1 (0x1)
    Signature Algorithm: sha256WithRSAEncryption
        Issuer: C=DE, ST=Bavaria, O=SAP, OU=Team Jester
        Validity
            Not Before: Jan 16 16:54:39 2019 GMT
            Not After : Feb 15 16:54:39 2019 GMT
        Subject: C=DE, ST=Bavaria, O=SAP, OU=Team Jester, CN=localhost
        Subject Public Key Info:
            Public Key Algorithm: rsaEncryption
                Public-Key: (2048 bit)
                Modulus:
                    00:df:98:16:af:66:3b:d1:e8:a4:cf:ab:95:03:c0:
                    ee:14:e3:b0:9a:53:c3:4f:7c:7d:32:b0:b5:d6:13:
                    2e:d6:f0:a3:d1:d8:79:54:22:f6:58:34:d7:f4:c9:
                    98:4e:13:20:df:53:ce:cd:21:ed:d0:40:d8:56:57:
                    69:b2:6a:15:d8:61:ce:ea:cb:1c:d5:24:a9:89:8c:
                    26:69:b1:fa:90:86:38:d4:d9:13:bd:61:26:49:17:
                    85:12:44:ae:fa:59:d4:b6:16:6d:6d:74:52:a2:ee:
                    6b:ee:e5:2e:ce:f3:a4:b7:8b:f0:2a:73:52:45:a0:
                    34:c3:6a:d5:c6:be:31:63:79:69:f5:01:24:ad:f9:
                    e9:8f:f4:d6:c7:dd:bf:da:ba:f7:ad:79:32:3a:4b:
                    fb:16:19:fc:53:89:0a:c5:68:9a:29:81:9a:1a:d0:
                    61:03:87:e5:7f:2e:b5:be:d2:2f:75:e6:5f:cf:91:
                    82:74:1f:fd:fd:30:94:26:bd:07:1a:82:7e:75:06:
                    9a:51:68:a0:bc:6f:39:a4:57:be:ae:17:99:7d:4b:
                    c5:89:e8:04:ae:5f:be:94:9f:20:23:c2:9d:fb:52:
                    0f:6a:78:79:40:e9:29:9c:3a:7d:e6:83:6c:61:e1:
                    a0:94:0c:08:08:af:38:73:1c:e0:c5:f1:60:10:d1:
                    63:7b
                Exponent: 65537 (0x10001)
    Signature Algorithm: sha256WithRSAEncryption
         37:c2:6c:35:3e:1f:c5:38:9e:d9:51:e5:90:91:8b:34:6a:7e:
         09:fe:4e:cb:50:dd:ce:9b:d8:53:ab:35:1c:70:c9:49:82:c2:
         9f:d3:78:e7:f2:2c:ab:12:d9:55:e4:71:5b:2f:f4:ba:38:19:
         60:69:72:ec:67:03:12:dd:b7:30:8e:78:5e:d7:93:22:7c:e2:
         cb:b9:cd:b0:5a:1e:48:a5:0d:c9:21:4f:24:f6:83:e4:63:0d:
         c0:da:2e:f3:76:ec:4d:98:77:c2:21:f6:78:6c:07:42:e7:1f:
         a8:50:43:b2:0c:f9:d7:a7:23:8a:d2:f9:ea:4b:7a:cc:bf:19:
         5c:2a:91:42:cc:10:07:52:fe:25:df:c6:6d:be:77:87:3c:e4:
         c3:16:29:56:fd:58:2e:58:44:8f:7b:5b:64:98:3a:85:be:73:
         4d:4e:fd:8a:5c:62:16:56:a4:e2:bd:60:99:34:b1:87:27:49:
         c7:3a:77:33:15:47:7d:90:fe:e9:dc:d2:68:86:a1:a8:89:db:
         e9:8f:43:bf:3e:37:ac:3a:5c:9a:4d:51:5b:85:5e:7b:24:f9:
         07:42:97:24:e1:1d:c9:98:f6:51:02:56:f5:d5:43:d0:eb:4c:
         6e:e0:b6:d3:c1:e2:6e:69:54:b5:fe:63:0c:6e:b8:a0:c4:5e:
         30:67:8c:7c:6d:de:f2:6c:44:e4:7a:ef:d7:4e:d7:70:52:b4:
         19:64:8b:3f:16:ad:1e:d4:ea:2d:bb:b0:bd:75:7b:7c:38:6f:
         7c:f9:99:ba:33:cd:2d:89:7d:65:4a:d5:7c:f1:4a:c0:29:2c:
         51:19:26:0a:39:f0:e6:19:70:c5:64:0a:18:ed:5b:cc:84:81:
         1b:79:71:aa:15:64:a5:22:18:df:7a:5f:c8:96:b0:bd:63:a0:
         f6:a5:68:80:97:2d:4b:2d:a6:7e:5a:d9:fb:93:ac:f6:37:4e:
         94:74:65:8f:28:3a:bf:77:df:b3:75:ac:c2:1f:1f:88:52:be:
         7d:f3:df:22:88:6a:32:09:fd:40:b7:95:12:21:1c:ab:55:cd:
         15:c5:0a:70:69:09:1c:44:85:c7:f5:75:04:31:6b:56:d0:ad:
         ad:a0:b3:34:90:26:62:45:e2:e7:8b:85:d8:65:d5:13:c4:c5:
         64:19:d6:3a:f4:49:a3:45:e2:4c:b1:60:ad:d7:ac:33:59:93:
         70:43:6d:ef:1a:d4:d7:4e:e4:c0:7a:29:bd:7a:36:65:48:f6:
         b1:5c:1b:29:23:bc:ef:5f:54:81:95:40:ac:fd:4b:d9:38:46:
         9d:aa:b4:f4:82:66:03:f0:29:ef:43:a0:d5:66:45:30:77:43:
         17:76:3e:6d:14:0c:58:ec
-----BEGIN CERTIFICATE-----
MIIEDjCCAfYCAQEwDQYJKoZIhvcNAQELBQAwQzELMAkGA1UEBhMCREUxEDAOBgNV
BAgMB0JhdmFyaWExDDAKBgNVBAoMA1NBUDEUMBIGA1UECwwLVGVhbSBKZXN0ZXIw
HhcNMTkwMTE2MTY1NDM5WhcNMTkwMjE1MTY1NDM5WjBXMQswCQYDVQQGEwJERTEQ
MA4GA1UECAwHQmF2YXJpYTEMMAoGA1UECgwDU0FQMRQwEgYDVQQLDAtUZWFtIEpl
c3RlcjESMBAGA1UEAwwJbG9jYWxob3N0MIIBIjANBgkqhkiG9w0BAQEFAAOCAQ8A
MIIBCgKCAQEA35gWr2Y70eikz6uVA8DuFOOwmlPDT3x9MrC11hMu1vCj0dh5VCL2
WDTX9MmYThMg31POzSHt0EDYVldpsmoV2GHO6ssc1SSpiYwmabH6kIY41NkTvWEm
SReFEkSu+lnUthZtbXRSou5r7uUuzvOkt4vwKnNSRaA0w2rVxr4xY3lp9QEkrfnp
j/TWx92/2rr3rXkyOkv7Fhn8U4kKxWiaKYGaGtBhA4flfy61vtIvdeZfz5GCdB/9
/TCUJr0HGoJ+dQaaUWigvG85pFe+rheZfUvFiegErl++lJ8gI8Kd+1IPanh5QOkp
nDp95oNsYeGglAwICK84cxzgxfFgENFjewIDAQABMA0GCSqGSIb3DQEBCwUAA4IC
AQA3wmw1Ph/FOJ7ZUeWQkYs0an4J/k7LUN3Om9hTqzUccMlJgsKf03jn8iyrEtlV
5HFbL/S6OBlgaXLsZwMS3bcwjnhe15MifOLLuc2wWh5IpQ3JIU8k9oPkYw3A2i7z
duxNmHfCIfZ4bAdC5x+oUEOyDPnXpyOK0vnqS3rMvxlcKpFCzBAHUv4l38ZtvneH
POTDFilW/VguWESPe1tkmDqFvnNNTv2KXGIWVqTivWCZNLGHJ0nHOnczFUd9kP7p
3NJohqGoidvpj0O/PjesOlyaTVFbhV57JPkHQpck4R3JmPZRAlb11UPQ60xu4LbT
weJuaVS1/mMMbrigxF4wZ4x8bd7ybETkeu/XTtdwUrQZZIs/Fq0e1Ootu7C9dXt8
OG98+Zm6M80tiX1lStV88UrAKSxRGSYKOfDmGXDFZAoY7VvMhIEbeXGqFWSlIhjf
el/IlrC9Y6D2pWiAly1LLaZ+Wtn7k6z2N06UdGWPKDq/d9+zdazCHx+IUr59898i
iGoyCf1At5USIRyrVc0VxQpwaQkcRIXH9XUEMWtW0K2toLM0kCZiReLni4XYZdUT
xMVkGdY69EmjReJMsWCt16wzWZNwQ23vGtTXTuTAeim9ejZlSPaxXBspI7zvX1SB
lUCs/UvZOEadqrT0gmYD8CnvQ6DVZkUwd0MXdj5tFAxY7A==
-----END CERTIFICATE-----
