Certificate:
    Data:
        Version: 1 (0x0)
        Serial Number: 2 (0x2)
    Signature Algorithm: sha256WithRSAEncryption
        Issuer: C=DE, ST=Bavaria, O=SAP, OU=Team Jester
        Validity
            Not Before: Jan 16 16:57:16 2019 GMT
            Not After : Feb 15 16:57:16 2019 GMT
        Subject: C=DE, ST=Bavaria, O=SAP, OU=Team Jester, CN=Michi
        Subject Public Key Info:
            Public Key Algorithm: rsaEncryption
                Public-Key: (2048 bit)
                Modulus:
                    00:be:8f:0e:15:a2:c4:e8:20:d6:af:b1:4d:07:01:
                    3a:ed:0b:8b:58:96:87:e9:28:3b:27:73:1d:89:2c:
                    8b:19:06:e5:92:bf:8a:81:61:23:c8:1d:b5:68:d7:
                    4d:11:b3:2d:c4:f8:44:c7:74:eb:09:c0:a1:33:7a:
                    77:89:0f:ff:62:1e:85:fa:b7:34:f9:7c:76:0e:62:
                    5b:32:55:23:27:40:4f:88:48:c9:35:b9:58:39:79:
                    c6:37:0d:f5:d9:97:c3:e5:f1:c4:61:14:7e:6a:d4:
                    30:9b:97:3b:bb:2b:b7:89:f5:4b:0e:67:b1:68:f7:
                    8f:09:ea:3e:8b:1d:0e:6d:19:8c:f4:68:71:00:7b:
                    60:94:2c:46:18:e1:bf:f4:fc:30:d4:c6:4c:ca:3e:
                    29:f9:f2:7d:67:d5:b3:b0:7f:60:fa:a0:a2:75:84:
                    bd:b1:6c:da:e2:2c:ad:95:a5:58:2d:1a:81:f0:83:
                    28:90:26:4f:d2:a4:b5:b6:8e:bb:f3:5d:52:25:ab:
                    fc:ef:6f:8e:ef:9c:3c:a8:ad:a2:38:48:91:d3:5f:
                    8b:45:ef:c9:a7:d1:ef:f0:ca:56:2a:d4:60:13:2c:
                    4f:69:20:64:7e:85:d4:65:e5:29:55:58:07:18:5e:
                    1a:56:ca:70:e5:dc:6d:dd:14:c6:05:21:4e:48:20:
                    83:fb
                Exponent: 65537 (0x10001)
    Signature Algorithm: sha256WithRSAEncryption
         0d:a9:f0:dd:cd:35:1a:7d:a1:22:b3:03:f9:cc:04:08:3d:2b:
         9b:5d:57:d3:51:99:8a:fb:2e:b0:a8:c3:6d:6e:0b:12:4f:e1:
         0b:95:93:e0:34:03:a0:79:85:4a:ea:2e:0a:13:4f:7b:73:74:
         e1:c6:dc:c3:65:13:77:e7:37:41:0d:91:7c:a2:6e:0b:d6:ee:
         94:46:87:e4:74:f3:cc:56:1c:e9:00:4a:15:e7:87:da:a1:fa:
         f7:77:c6:f7:e3:35:9a:7c:55:8c:61:e7:f1:8f:09:16:9f:fd:
         3d:07:e9:b9:08:9a:a5:54:c2:d9:64:85:2f:fc:34:c6:bb:54:
         e2:1c:01:3a:3a:e9:03:4d:74:a5:f3:64:11:7d:2d:b4:f5:39:
         89:ae:39:f4:5b:e4:3d:4e:b1:03:cc:73:74:a2:b4:4e:98:57:
         79:5d:47:ab:a8:7c:21:b7:d3:3c:58:54:e1:c0:1c:c1:c2:ed:
         5b:a6:eb:ae:08:71:4a:8b:11:48:75:f6:2b:6a:43:17:0f:ed:
         56:4b:60:59:2f:86:1b:b1:4b:ee:61:4e:6c:35:9a:0b:6f:6a:
         ac:39:b7:9f:bb:39:35:f6:3b:3d:e6:97:10:f6:70:79:4c:66:
         c6:6c:42:6b:0c:79:76:c9:ed:40:1d:9c:a2:dc:c4:d9:40:ef:
         d3:a2:e8:ae:5d:5f:6a:ee:13:3e:4c:12:be:4a:0e:01:5b:04:
         f9:e0:70:b4:fa:59:25:9d:66:eb:ca:ae:0a:bb:3b:91:2a:19:
         98:79:06:08:33:d4:b5:a8:e9:21:cc:08:ed:3c:06:ea:78:7c:
         1f:81:4e:a7:99:dd:1d:c1:ff:aa:73:15:26:19:f9:56:0c:e4:
         7b:58:ae:b8:2a:6f:92:c3:2c:ac:75:4b:e7:14:3d:71:59:2b:
         d2:83:fd:ce:d3:f9:41:ae:3b:80:e7:51:27:b4:ac:8c:b5:fa:
         88:82:a6:df:6b:33:df:87:6b:a1:a5:97:93:64:5f:52:e9:40:
         b1:74:a5:c6:29:10:62:d6:28:77:60:c8:48:63:09:69:e8:4a:
         7a:79:1f:14:cc:49:8a:2c:b6:75:45:54:8e:85:3c:d2:84:6b:
         5d:45:2b:b6:12:48:11:61:b7:6c:ea:b7:54:56:8f:0e:0e:2b:
         bc:d9:8e:49:f3:41:d5:0b:3d:6d:67:ff:30:79:c0:84:d8:25:
         17:c3:80:ae:b5:3a:ee:9b:ea:e1:4c:be:f6:93:bf:df:ee:3b:
         91:0c:de:ad:f6:31:19:c6:13:fb:21:ac:59:64:7b:ff:c6:c1:
         58:c1:3b:37:dc:e2:b3:eb:ed:f6:3c:f2:a6:99:a9:7a:8c:ed:
         9d:50:49:be:47:6f:cb:84
-----BEGIN CERTIFICATE-----
MIIECjCCAfICAQIwDQYJKoZIhvcNAQELBQAwQzELMAkGA1UEBhMCREUxEDAOBgNV
BAgMB0JhdmFyaWExDDAKBgNVBAoMA1NBUDEUMBIGA1UECwwLVGVhbSBKZXN0ZXIw
HhcNMTkwMTE2MTY1NzE2WhcNMTkwMjE1MTY1NzE2WjBTMQswCQYDVQQGEwJERTEQ
MA4GA1UECAwHQmF2YXJpYTEMMAoGA1UECgwDU0FQMRQwEgYDVQQLDAtUZWFtIEpl
c3RlcjEOMAwGA1UEAwwFTWljaGkwggEiMA0GCSqGSIb3DQEBAQUAA4IBDwAwggEK
AoIBAQC+jw4VosToINavsU0HATrtC4tYlofpKDsncx2JLIsZBuWSv4qBYSPIHbVo
100Rsy3E+ETHdOsJwKEzeneJD/9iHoX6tzT5fHYOYlsyVSMnQE+ISMk1uVg5ecY3
DfXZl8Pl8cRhFH5q1DCblzu7K7eJ9UsOZ7Fo948J6j6LHQ5tGYz0aHEAe2CULEYY
4b/0/DDUxkzKPin58n1n1bOwf2D6oKJ1hL2xbNriLK2VpVgtGoHwgyiQJk/SpLW2
jrvzXVIlq/zvb47vnDyoraI4SJHTX4tF78mn0e/wylYq1GATLE9pIGR+hdRl5SlV
WAcYXhpWynDl3G3dFMYFIU5IIIP7AgMBAAEwDQYJKoZIhvcNAQELBQADggIBAA2p
8N3NNRp9oSKzA/nMBAg9K5tdV9NRmYr7LrCow21uCxJP4QuVk+A0A6B5hUrqLgoT
T3tzdOHG3MNlE3fnN0ENkXyibgvW7pRGh+R088xWHOkAShXnh9qh+vd3xvfjNZp8
VYxh5/GPCRaf/T0H6bkImqVUwtlkhS/8NMa7VOIcATo66QNNdKXzZBF9LbT1OYmu
OfRb5D1OsQPMc3SitE6YV3ldR6uofCG30zxYVOHAHMHC7Vum664IcUqLEUh19itq
QxcP7VZLYFkvhhuxS+5hTmw1mgtvaqw5t5+7OTX2Oz3mlxD2cHlMZsZsQmsMeXbJ
7UAdnKLcxNlA79Oi6K5dX2ruEz5MEr5KDgFbBPngcLT6WSWdZuvKrgq7O5EqGZh5
Bggz1LWo6SHMCO08Bup4fB+BTqeZ3R3B/6pzFSYZ+VYM5HtYrrgqb5LDLKx1S+cU
PXFZK9KD/c7T+UGuO4DnUSe0rIy1+oiCpt9rM9+Ha6Gll5NkX1LpQLF0pcYpEGLW
KHdgyEhjCWnoSnp5HxTMSYostnVFVI6FPNKEa11FK7YSSBFht2zqt1RWjw4OK7zZ
jknzQdULPW1n/zB5wITYJRfDgK61Ou6b6uFMvvaTv9/uO5EM3q32MRnGE/shrFlk
e//GwVjBOzfc4rPr7fY88qaZqXqM7Z1QSb5Hb8uE
-----END CERTIFICATE-----
